target datalayout = "e-m:e-p270:32:32-p271:32:32-p272:64:64-i64:64-i128:128-f80:128-n8:16:32:64-S128"
target triple = "x86_64-pc-linux-gnu"

%struct.AVFilterContext = type { ptr, ptr, ptr, ptr, ptr, i32, ptr, ptr, i32, ptr, ptr, i32, i32, ptr, ptr, ptr, ptr, i32, ptr, i32, i32 }
%struct.ShowCWTContext = type { ptr, i32, i32, i32, ptr, %struct.AVRational, %struct.AVRational, ptr, ptr, ptr, ptr, i32, i32, i32, i64, i64, i64, ptr, ptr, ptr, ptr, ptr, ptr, ptr, ptr, ptr, ptr, ptr, ptr, ptr, ptr, ptr, ptr, i32, i32, i32, i32, i32, i32, i32, i32, i32, i32, i32, i32, i32, i32, i32, i32, i32, float, i32, i32, float, float, float, float, float, float, i32, i32, float, ptr }
%struct.AVRational = type { i32, i32 }

; Function Attrs: cold nounwind optsize uwtable
define internal void @uninit(ptr noundef %0) #0 {
  %2 = alloca ptr, align 8
  %3 = alloca ptr, align 8
  %4 = alloca i32, align 4
  %5 = alloca i32, align 4
  %6 = alloca i32, align 4
  store ptr %0, ptr %2, align 8, !tbaa !4
  call void @llvm.lifetime.start.p0(i64 8, ptr %3) #12
  %7 = load ptr, ptr %2, align 8, !tbaa !4
  %8 = getelementptr inbounds nuw %struct.AVFilterContext, ptr %7, i32 0, i32 9
  %9 = load ptr, ptr %8, align 8, !tbaa !9
  store ptr %9, ptr %3, align 8, !tbaa !22
  %10 = load ptr, ptr %3, align 8, !tbaa !22
  %11 = getelementptr inbounds nuw %struct.ShowCWTContext, ptr %10, i32 0, i32 17
  call void @av_freep(ptr noundef %11)
  %12 = load ptr, ptr %3, align 8, !tbaa !22
  %13 = getelementptr inbounds nuw %struct.ShowCWTContext, ptr %12, i32 0, i32 20
  call void @av_freep(ptr noundef %13)
  %14 = load ptr, ptr %3, align 8, !tbaa !22
  %15 = getelementptr inbounds nuw %struct.ShowCWTContext, ptr %14, i32 0, i32 21
  call void @av_freep(ptr noundef %15)
  %16 = load ptr, ptr %3, align 8, !tbaa !22
  %17 = getelementptr inbounds nuw %struct.ShowCWTContext, ptr %16, i32 0, i32 19
  call void @av_freep(ptr noundef %17)
  %18 = load ptr, ptr %3, align 8, !tbaa !22
  %19 = getelementptr inbounds nuw %struct.ShowCWTContext, ptr %18, i32 0, i32 22
  call void @av_frame_free(ptr noundef %19)
  %20 = load ptr, ptr %3, align 8, !tbaa !22
  %21 = getelementptr inbounds nuw %struct.ShowCWTContext, ptr %20, i32 0, i32 23
  call void @av_frame_free(ptr noundef %21)
  %22 = load ptr, ptr %3, align 8, !tbaa !22
  %23 = getelementptr inbounds nuw %struct.ShowCWTContext, ptr %22, i32 0, i32 24
  call void @av_frame_free(ptr noundef %23)
  %24 = load ptr, ptr %3, align 8, !tbaa !22
  %25 = getelementptr inbounds nuw %struct.ShowCWTContext, ptr %24, i32 0, i32 25
  call void @av_frame_free(ptr noundef %25)
  %26 = load ptr, ptr %3, align 8, !tbaa !22
  %27 = getelementptr inbounds nuw %struct.ShowCWTContext, ptr %26, i32 0, i32 26
  call void @av_frame_free(ptr noundef %27)
  %28 = load ptr, ptr %3, align 8, !tbaa !22
  %29 = getelementptr inbounds nuw %struct.ShowCWTContext, ptr %28, i32 0, i32 27
  call void @av_frame_free(ptr noundef %29)
  %30 = load ptr, ptr %3, align 8, !tbaa !22
  %31 = getelementptr inbounds nuw %struct.ShowCWTContext, ptr %30, i32 0, i32 28
  call void @av_frame_free(ptr noundef %31)
  %32 = load ptr, ptr %3, align 8, !tbaa !22
  %33 = getelementptr inbounds nuw %struct.ShowCWTContext, ptr %32, i32 0, i32 29
  call void @av_frame_free(ptr noundef %33)
  %34 = load ptr, ptr %3, align 8, !tbaa !22
  %35 = getelementptr inbounds nuw %struct.ShowCWTContext, ptr %34, i32 0, i32 30
  call void @av_frame_free(ptr noundef %35)
  %36 = load ptr, ptr %3, align 8, !tbaa !22
  %37 = getelementptr inbounds nuw %struct.ShowCWTContext, ptr %36, i32 0, i32 31
  call void @av_frame_free(ptr noundef %37)
  %38 = load ptr, ptr %3, align 8, !tbaa !22
  %39 = getelementptr inbounds nuw %struct.ShowCWTContext, ptr %38, i32 0, i32 32
  call void @av_frame_free(ptr noundef %39)
  %40 = load ptr, ptr %3, align 8, !tbaa !22
  %41 = getelementptr inbounds nuw %struct.ShowCWTContext, ptr %40, i32 0, i32 7
  %42 = load ptr, ptr %41, align 8, !tbaa !24
  %43 = icmp ne ptr %42, null
  br i1 %43, label %44, label %65

44:                                               ; preds = %1
  call void @llvm.lifetime.start.p0(i64 4, ptr %4) #12
  store i32 0, ptr %4, align 4, !tbaa !35
  br label %45

45:                                               ; preds = %59, %44
  %46 = load i32, ptr %4, align 4, !tbaa !35
  %47 = load ptr, ptr %3, align 8, !tbaa !22
  %48 = getelementptr inbounds nuw %struct.ShowCWTContext, ptr %47, i32 0, i32 33
  %49 = load i32, ptr %48, align 8, !tbaa !36
  %50 = icmp slt i32 %46, %49
  br i1 %50, label %52, label %51

51:                                               ; preds = %45
  call void @llvm.lifetime.end.p0(i64 4, ptr %4) #12
  br label %62

52:                                               ; preds = %45
  %53 = load ptr, ptr %3, align 8, !tbaa !22
  %54 = getelementptr inbounds nuw %struct.ShowCWTContext, ptr %53, i32 0, i32 7
  %55 = load ptr, ptr %54, align 8, !tbaa !24
  %56 = load i32, ptr %4, align 4, !tbaa !35
  %57 = sext i32 %56 to i64
  %58 = getelementptr inbounds ptr, ptr %55, i64 %57
  call void @av_tx_uninit(ptr noundef %58)
  br label %59

59:                                               ; preds = %52
  %60 = load i32, ptr %4, align 4, !tbaa !35
  %61 = add nsw i32 %60, 1
  store i32 %61, ptr %4, align 4, !tbaa !35
  br label %45, !llvm.loop !37

62:                                               ; preds = %51
  %63 = load ptr, ptr %3, align 8, !tbaa !22
  %64 = getelementptr inbounds nuw %struct.ShowCWTContext, ptr %63, i32 0, i32 7
  call void @av_freep(ptr noundef %64)
  br label %65

65:                                               ; preds = %62, %1
  %66 = load ptr, ptr %3, align 8, !tbaa !22
  %67 = getelementptr inbounds nuw %struct.ShowCWTContext, ptr %66, i32 0, i32 8
  %68 = load ptr, ptr %67, align 8, !tbaa !39
  %69 = icmp ne ptr %68, null
  br i1 %69, label %70, label %91

70:                                               ; preds = %65
  call void @llvm.lifetime.start.p0(i64 4, ptr %5) #12
  store i32 0, ptr %5, align 4, !tbaa !35
  br label %71

71:                                               ; preds = %85, %70
  %72 = load i32, ptr %5, align 4, !tbaa !35
  %73 = load ptr, ptr %3, align 8, !tbaa !22
  %74 = getelementptr inbounds nuw %struct.ShowCWTContext, ptr %73, i32 0, i32 33
  %75 = load i32, ptr %74, align 8, !tbaa !36
  %76 = icmp slt i32 %72, %75
  br i1 %76, label %78, label %77

77:                                               ; preds = %71
  call void @llvm.lifetime.end.p0(i64 4, ptr %5) #12
  br label %88

78:                                               ; preds = %71
  %79 = load ptr, ptr %3, align 8, !tbaa !22
  %80 = getelementptr inbounds nuw %struct.ShowCWTContext, ptr %79, i32 0, i32 8
  %81 = load ptr, ptr %80, align 8, !tbaa !39
  %82 = load i32, ptr %5, align 4, !tbaa !35
  %83 = sext i32 %82 to i64
  %84 = getelementptr inbounds ptr, ptr %81, i64 %83
  call void @av_tx_uninit(ptr noundef %84)
  br label %85

85:                                               ; preds = %78
  %86 = load i32, ptr %5, align 4, !tbaa !35
  %87 = add nsw i32 %86, 1
  store i32 %87, ptr %5, align 4, !tbaa !35
  br label %71, !llvm.loop !40

88:                                               ; preds = %77
  %89 = load ptr, ptr %3, align 8, !tbaa !22
  %90 = getelementptr inbounds nuw %struct.ShowCWTContext, ptr %89, i32 0, i32 8
  call void @av_freep(ptr noundef %90)
  br label %91

91:                                               ; preds = %88, %65
  %92 = load ptr, ptr %3, align 8, !tbaa !22
  %93 = getelementptr inbounds nuw %struct.ShowCWTContext, ptr %92, i32 0, i32 18
  %94 = load ptr, ptr %93, align 8, !tbaa !41
  %95 = icmp ne ptr %94, null
  br i1 %95, label %96, label %115

96:                                               ; preds = %91
  call void @llvm.lifetime.start.p0(i64 4, ptr %6) #12
  store i32 0, ptr %6, align 4, !tbaa !35
  br label %97

97:                                               ; preds = %111, %96
  %98 = load i32, ptr %6, align 4, !tbaa !35
  %99 = load ptr, ptr %3, align 8, !tbaa !22
  %100 = getelementptr inbounds nuw %struct.ShowCWTContext, ptr %99, i32 0, i32 49
  %101 = load i32, ptr %100, align 8, !tbaa !42
  %102 = icmp slt i32 %98, %101
  br i1 %102, label %104, label %103

103:                                              ; preds = %97
  call void @llvm.lifetime.end.p0(i64 4, ptr %6) #12
  br label %114

104:                                              ; preds = %97
  %105 = load ptr, ptr %3, align 8, !tbaa !22
  %106 = getelementptr inbounds nuw %struct.ShowCWTContext, ptr %105, i32 0, i32 18
  %107 = load ptr, ptr %106, align 8, !tbaa !41
  %108 = load i32, ptr %6, align 4, !tbaa !35
  %109 = sext i32 %108 to i64
  %110 = getelementptr inbounds ptr, ptr %107, i64 %109
  call void @av_freep(ptr noundef %110)
  br label %111

111:                                              ; preds = %104
  %112 = load i32, ptr %6, align 4, !tbaa !35
  %113 = add nsw i32 %112, 1
  store i32 %113, ptr %6, align 4, !tbaa !35
  br label %97, !llvm.loop !43

114:                                              ; preds = %103
  br label %115

115:                                              ; preds = %114, %91
  %116 = load ptr, ptr %3, align 8, !tbaa !22
  %117 = getelementptr inbounds nuw %struct.ShowCWTContext, ptr %116, i32 0, i32 18
  call void @av_freep(ptr noundef %117)
  %118 = load ptr, ptr %3, align 8, !tbaa !22
  %119 = getelementptr inbounds nuw %struct.ShowCWTContext, ptr %118, i32 0, i32 62
  call void @av_freep(ptr noundef %119)
  call void @llvm.lifetime.end.p0(i64 8, ptr %3) #12
  ret void
}