; Function Attrs: cold nounwind optsize uwtable
define internal void @uninit(ptr noundef readonly captures(none) %0) #0 {
  %2 = getelementptr inbounds nuw i8, ptr %0, i64 72
  %3 = load ptr, ptr %2, align 8, !tbaa !4
  %4 = getelementptr inbounds nuw i8, ptr %3, i64 120
  tail call void @av_freep(ptr noundef nonnull %4) #13
  %5 = getelementptr inbounds nuw i8, ptr %3, i64 144
  tail call void @av_freep(ptr noundef nonnull %5) #13
  %6 = getelementptr inbounds nuw i8, ptr %3, i64 152
  tail call void @av_freep(ptr noundef nonnull %6) #13
  %7 = getelementptr inbounds nuw i8, ptr %3, i64 136
  tail call void @av_freep(ptr noundef nonnull %7) #13
  %8 = getelementptr inbounds nuw i8, ptr %3, i64 160
  tail call void @av_frame_free(ptr noundef nonnull %8) #13
  %9 = getelementptr inbounds nuw i8, ptr %3, i64 168
  tail call void @av_frame_free(ptr noundef nonnull %9) #13
  %10 = getelementptr inbounds nuw i8, ptr %3, i64 176
  tail call void @av_frame_free(ptr noundef nonnull %10) #13
  %11 = getelementptr inbounds nuw i8, ptr %3, i64 184
  tail call void @av_frame_free(ptr noundef nonnull %11) #13
  %12 = getelementptr inbounds nuw i8, ptr %3, i64 192
  tail call void @av_frame_free(ptr noundef nonnull %12) #13
  %13 = getelementptr inbounds nuw i8, ptr %3, i64 200
  tail call void @av_frame_free(ptr noundef nonnull %13) #13
  %14 = getelementptr inbounds nuw i8, ptr %3, i64 208
  tail call void @av_frame_free(ptr noundef nonnull %14) #13
  %15 = getelementptr inbounds nuw i8, ptr %3, i64 216
  tail call void @av_frame_free(ptr noundef nonnull %15) #13
  %16 = getelementptr inbounds nuw i8, ptr %3, i64 224
  tail call void @av_frame_free(ptr noundef nonnull %16) #13
  %17 = getelementptr inbounds nuw i8, ptr %3, i64 232
  tail call void @av_frame_free(ptr noundef nonnull %17) #13
  %18 = getelementptr inbounds nuw i8, ptr %3, i64 240
  tail call void @av_frame_free(ptr noundef nonnull %18) #13
  %19 = getelementptr inbounds nuw i8, ptr %3, i64 48
  %20 = load ptr, ptr %19, align 8, !tbaa !20
  %.not = icmp eq ptr %20, null
  br i1 %.not, label %29, label %.preheader42

.preheader42:                                     ; preds = %1
  %21 = getelementptr inbounds nuw i8, ptr %3, i64 248
  %22 = load i32, ptr %21, align 8, !tbaa !31
  %23 = icmp sgt i32 %22, 0
  br i1 %23, label %.lr.ph, label %._crit_edge

._crit_edge:                                      ; preds = %.lr.ph, %.preheader42
  tail call void @av_freep(ptr noundef nonnull %19) #13
  br label %29

.lr.ph:                                           ; preds = %.preheader42, %.lr.ph
  %indvars.iv = phi i64 [ %indvars.iv.next, %.lr.ph ], [ 0, %.preheader42 ]
  %24 = load ptr, ptr %19, align 8, !tbaa !20
  %25 = getelementptr inbounds nuw ptr, ptr %24, i64 %indvars.iv
  tail call void @av_tx_uninit(ptr noundef %25) #13
  %indvars.iv.next = add nuw nsw i64 %indvars.iv, 1
  %26 = load i32, ptr %21, align 8, !tbaa !31
  %27 = sext i32 %26 to i64
  %28 = icmp slt i64 %indvars.iv.next, %27
  br i1 %28, label %.lr.ph, label %._crit_edge, !llvm.loop !32

29:                                               ; preds = %._crit_edge, %1
  %30 = getelementptr inbounds nuw i8, ptr %3, i64 56
  %31 = load ptr, ptr %30, align 8, !tbaa !34
  %.not39 = icmp eq ptr %31, null
  br i1 %.not39, label %40, label %.preheader41

.preheader41:                                     ; preds = %29
  %32 = getelementptr inbounds nuw i8, ptr %3, i64 248
  %33 = load i32, ptr %32, align 8, !tbaa !31
  %34 = icmp sgt i32 %33, 0
  br i1 %34, label %.lr.ph45, label %._crit_edge46

._crit_edge46:                                    ; preds = %.lr.ph45, %.preheader41
  tail call void @av_freep(ptr noundef nonnull %30) #13
  br label %40

.lr.ph45:                                         ; preds = %.preheader41, %.lr.ph45
  %indvars.iv50 = phi i64 [ %indvars.iv.next51, %.lr.ph45 ], [ 0, %.preheader41 ]
  %35 = load ptr, ptr %30, align 8, !tbaa !34
  %36 = getelementptr inbounds nuw ptr, ptr %35, i64 %indvars.iv50
  tail call void @av_tx_uninit(ptr noundef %36) #13
  %indvars.iv.next51 = add nuw nsw i64 %indvars.iv50, 1
  %37 = load i32, ptr %32, align 8, !tbaa !31
  %38 = sext i32 %37 to i64
  %39 = icmp slt i64 %indvars.iv.next51, %38
  br i1 %39, label %.lr.ph45, label %._crit_edge46, !llvm.loop !35

40:                                               ; preds = %._crit_edge46, %29
  %41 = getelementptr inbounds nuw i8, ptr %3, i64 128
  %42 = load ptr, ptr %41, align 8, !tbaa !36
  %.not40 = icmp eq ptr %42, null
  br i1 %.not40, label %.loopexit, label %.preheader

.preheader:                                       ; preds = %40
  %43 = getelementptr inbounds nuw i8, ptr %3, i64 312
  %44 = load i32, ptr %43, align 8, !tbaa !37
  %45 = icmp sgt i32 %44, 0
  br i1 %45, label %.lr.ph48, label %.loopexit

.lr.ph48:                                         ; preds = %.preheader, %.lr.ph48
  %indvars.iv53 = phi i64 [ %indvars.iv.next54, %.lr.ph48 ], [ 0, %.preheader ]
  %46 = load ptr, ptr %41, align 8, !tbaa !36
  %47 = getelementptr inbounds nuw ptr, ptr %46, i64 %indvars.iv53
  tail call void @av_freep(ptr noundef %47) #13
  %indvars.iv.next54 = add nuw nsw i64 %indvars.iv53, 1
  %48 = load i32, ptr %43, align 8, !tbaa !37
  %49 = sext i32 %48 to i64
  %50 = icmp slt i64 %indvars.iv.next54, %49
  br i1 %50, label %.lr.ph48, label %.loopexit, !llvm.loop !38

.loopexit:                                        ; preds = %.lr.ph48, %.preheader, %40
  tail call void @av_freep(ptr noundef nonnull %41) #13
  %51 = getelementptr inbounds nuw i8, ptr %3, i64 368
  tail call void @av_freep(ptr noundef nonnull %51) #13
  ret void
}